Certificate:
    Data:
        Version: 3 (0x2)
        Serial Number: 3 (0x3)
        Signature Algorithm: sha256WithRSAEncryption
        Issuer: C=ES, ST=MADRID, L=GETAFE, O=UC3M, OU=UC3M Cyber, CN=UC3M CA
        Validity
            Not Before: Nov 13 20:25:14 2023 GMT
            Not After : Nov 12 20:25:14 2024 GMT
        Subject: C=ES, ST=MADRID, O=UC3M, OU=UC3M Cyber, CN=10.0.3.149
        Subject Public Key Info:
            Public Key Algorithm: rsaEncryption
            RSA Public Key: (4096 bit)
                Modulus (4096 bit):
                    00:c0:14:8d:1c:8f:fb:58:18:d5:14:99:8c:bd:8d:
                    b5:4c:cb:70:26:bc:95:c3:83:1d:60:e3:ae:73:a2:
                    e9:a2:28:2c:ac:8b:9c:53:54:f5:71:52:6a:cb:9c:
                    f3:11:5c:47:00:0e:cd:47:f9:08:54:a6:c0:25:98:
                    06:95:5d:d3:a7:a4:b4:15:94:20:fb:1e:cd:b5:b5:
                    27:91:fb:c8:33:21:20:b5:c4:bc:8e:36:af:53:23:
                    3b:32:31:5a:10:95:b0:e3:96:97:1e:09:44:57:74:
                    8b:b3:2f:a8:c5:5d:5a:8f:49:ad:81:a2:0e:94:4a:
                    5b:be:b4:23:37:da:04:d8:bd:a9:13:69:42:6e:b2:
                    00:fb:f5:fd:03:91:e6:5c:0c:af:16:1a:49:93:10:
                    cc:99:7d:ee:23:cd:97:cd:69:10:f9:02:0f:1e:db:
                    e7:93:17:66:70:ab:9a:e7:c1:62:cc:e8:3f:a3:61:
                    7d:19:ef:3d:c5:2b:04:99:d8:fc:05:da:11:e6:43:
                    87:67:b2:fe:8a:2d:5c:d4:10:7d:ad:86:15:46:fc:
                    05:42:cc:ef:8e:b2:e4:be:44:46:7c:05:47:5a:3a:
                    54:08:48:02:77:1a:ac:50:26:9d:26:a2:2b:b7:56:
                    8b:7e:dc:79:73:6a:32:58:8e:91:e2:3f:87:ee:5b:
                    f3:93:34:9a:5f:14:d0:80:ce:86:96:84:f4:ab:0e:
                    50:be:23:1f:7d:68:36:33:44:b9:30:ee:5b:61:5a:
                    45:1d:0e:f0:30:f8:7c:5e:6d:81:12:57:e5:11:49:
                    03:e5:f3:da:ac:22:5a:70:a9:54:68:32:9c:0d:23:
                    e4:f5:39:c5:10:50:d4:b7:0c:51:5b:46:6d:f9:54:
                    57:90:75:e1:3b:18:24:d6:21:72:22:8a:ff:08:45:
                    84:5f:4c:a9:86:84:70:cd:f8:1f:2e:45:ca:85:da:
                    83:8d:43:11:e8:4a:e1:f9:9d:22:f7:d6:82:f6:a3:
                    41:d4:75:28:03:d0:32:04:54:c5:7c:68:3a:33:82:
                    57:9b:69:f8:37:74:19:eb:e0:4b:02:8e:53:71:9c:
                    b8:3d:85:0c:c4:03:73:2b:76:45:a1:7e:61:0f:09:
                    2b:8f:d9:2f:fd:c8:53:0a:1f:1e:aa:96:20:1a:2b:
                    5f:b3:4c:7c:a7:7d:80:3f:53:48:64:8f:d5:b8:08:
                    8d:ca:8d:cc:d2:17:e0:03:d3:91:a6:98:51:29:54:
                    41:9a:47:ed:eb:06:10:04:1f:03:61:6e:e7:8b:63:
                    87:6c:59:58:dc:c3:d7:ce:80:8f:5a:e7:23:73:72:
                    de:df:33:ac:a3:16:fc:d9:23:0e:90:f6:e7:e1:61:
                    b2:ce:0f
                Exponent: 65537 (0x10001)
        X509v3 extensions:
            X509v3 Basic Constraints: 
                CA:FALSE
            Netscape Comment: 
                OpenSSL Generated Certificate
            X509v3 Subject Alternative Name: 
                DNS:10.0.3.149, DNS:cyber.uc3m.es
            X509v3 Subject Key Identifier: 
                AC:A1:17:53:2B:A9:1A:CE:06:44:F5:7D:66:7E:44:B8:5E:4D:C8:50
            X509v3 Authority Key Identifier: 
                keyid:96:49:9D:48:3E:A5:18:27:BD:93:E4:E5:C0:07:31:ED:05:DB:AF:C0

    Signature Algorithm: sha256WithRSAEncryption
        88:17:53:e7:29:eb:bd:77:f3:72:6d:32:48:3f:a8:db:f6:d1:
        50:ed:36:fd:78:2e:cc:b2:8d:dd:2c:95:4b:72:dc:dc:85:b6:
        fd:77:5c:76:d7:48:93:97:5d:be:a6:9e:24:fd:cf:c4:e9:87:
        34:05:6a:59:56:9a:54:78:0b:93:a6:d9:a9:90:88:81:6c:c4:
        22:b0:8e:de:f1:5b:e2:dd:a9:72:0c:d7:fb:73:a1:f8:5a:3a:
        be:7e:24:f8:2a:58:40:7c:ee:ca:9b:43:91:da:fe:af:8c:24:
        34:37:f3:a0:89:93:af:d2:92:6f:10:1b:d1:66:d6:8c:ea:94:
        13:9e
-----BEGIN CERTIFICATE-----
MIIEWTCCA8KgAwIBAgIBAzANBgkqhkiG9w0BAQsFADBlMQswCQYDVQQGEwJFUzEP
MA0GA1UECBMGTUFEUklEMQ8wDQYDVQQHEwZHRVRBRkUxDTALBgNVBAoTBFVDM00x
EzARBgNVBAsTClVDM00gQ3liZXIxEDAOBgNVBAMTB1VDM00gQ0EwHhcNMjMxMTEz
MjAyNTE0WhcNMjQxMTEyMjAyNTE0WjBXMQswCQYDVQQGEwJFUzEPMA0GA1UECBMG
TUFEUklEMQ0wCwYDVQQKEwRVQzNNMRMwEQYDVQQLEwpVQzNNIEN5YmVyMRMwEQYD
VQQDEwoxMC4wLjMuMTQ5MIICIjANBgkqhkiG9w0BAQEFAAOCAg8AMIICCgKCAgEA
wBSNHI/7WBjVFJmMvY21TMtwJryVw4MdYOOuc6LpoigsrIucU1T1cVJqy5zzEVxH
AA7NR/kIVKbAJZgGlV3Tp6S0FZQg+x7NtbUnkfvIMyEgtcS8jjavUyM7MjFaEJWw
45aXHglEV3SLsy+oxV1aj0mtgaIOlEpbvrQjN9oE2L2pE2lCbrIA+/X9A5HmXAyv
FhpJkxDMmX3uI82XzWkQ+QIPHtvnkxdmcKua58FizOg/o2F9Ge89xSsEmdj8BdoR
5kOHZ7L+ii1c1BB9rYYVRvwFQszvjrLkvkRGfAVHWjpUCEgCdxqsUCadJqIrt1aL
ftx5c2oyWI6R4j+H7lvzkzSaXxTQgM6GloT0qw5QviMffWg2M0S5MO5bYVpFHQ7w
MPh8Xm2BElflEUkD5fParCJacKlUaDKcDSPk9TnFEFDUtwxRW0Zt+VRXkHXhOxgk
1iFyIor/CEWEX0yphoRwzfgfLkXKhdqDjUMR6Erh+Z0i99aC9qNB1HUoA9AyBFTF
fGg6M4JXm2n4N3QZ6+BLAo5TcZy4PYUMxANzK3ZFoX5hDwkrj9kv/chTCh8eqpYg
Gitfs0x8p32AP1NIZI/VuAiNyo3M0hfgA9ORpphRKVRBmkft6wYQBB8DYW7ni2OH
bFlY3MPXzoCPWucjc3Le3zOsoxb82SMOkPbn4WGyzg8CAwEAAaOBojCBnzAJBgNV
HRMEAjAAMCwGCWCGSAGG+EIBDQQfFh1PcGVuU1NMIEdlbmVyYXRlZCBDZXJ0aWZp
Y2F0ZTAkBgNVHREEHTAbggoxMC4wLjMuMTQ5gg1jeWJlci51YzNtLmVzMB0GA1Ud
DgQWBBSsoRdTK6kazgZE9X1mfkS4Xk3IUDAfBgNVHSMEGDAWgBSWSZ1IPqUYJ72T
5OXABzHtBduvwDANBgkqhkiG9w0BAQsFAAOBgQCIF1PnKeu9d/NybTJIP6jb9tFQ
7Tb9eC7Mso3dLJVLctzchbb9d1x210iTl12+pp4k/c/E6Yc0BWpZVppUeAuTptmp
kIiBbMQisI7e8Vvi3alyDNf7c6H4Wjq+fiT4KlhAfO7Km0OR2v6vjCQ0N/OgiZOv
0pJvEBvRZtaM6pQTng==
-----END CERTIFICATE-----
