Certificate:
    Data:
        Version: 3 (0x2)
        Serial Number: 1 (0x1)
        Signature Algorithm: sha1WithRSAEncryption
        Issuer: C=ES, ST=MADRID, L=GETAFE, O=Internet Widgits Pty Ltd, OU=UC3M Cyber, CN=UC3M CA
        Validity
            Not Before: Nov 13 19:38:58 2023 GMT
            Not After : Nov 12 19:38:58 2024 GMT
        Subject: C=ES, ST=MADRID, O=Internet Widgits Pty Ltd, OU=UC3M Cyber, CN=10.0.3.149
        Subject Public Key Info:
            Public Key Algorithm: rsaEncryption
            RSA Public Key: (1024 bit)
                Modulus (1024 bit):
                    00:d3:93:c6:7b:a9:7c:34:83:32:24:a8:5a:d2:94:
                    85:d5:d2:f1:63:83:4d:ae:02:d3:91:d9:df:a2:85:
                    96:32:ae:af:35:41:5b:58:b0:c1:6f:1c:56:60:d1:
                    ae:f4:0e:f0:46:17:a7:01:af:3c:10:7a:8d:ff:a1:
                    30:a9:59:ae:2b:da:ff:a4:da:c1:b9:1d:fe:82:1f:
                    c1:18:16:af:a3:4f:d5:04:b7:2f:de:ee:fc:37:a3:
                    1a:d2:9d:47:f2:fd:b8:c8:e6:cf:15:ea:fd:5b:1d:
                    0b:2f:e9:d9:65:d1:c5:62:f4:e7:7c:63:78:c6:b4:
                    0a:1a:d6:96:7b:59:00:07:a7
                Exponent: 65537 (0x10001)
        X509v3 extensions:
            X509v3 Basic Constraints: 
                CA:FALSE
            Netscape Comment: 
                OpenSSL Generated Certificate
            X509v3 Subject Key Identifier: 
                6D:87:ED:5C:EB:03:F5:49:02:77:CC:3C:03:7C:23:79:22:F4:DD:F0
            X509v3 Authority Key Identifier: 
                keyid:68:90:95:52:41:24:C2:B2:D5:29:1A:34:F5:28:78:12:25:CE:0A:1B

    Signature Algorithm: sha1WithRSAEncryption
        2e:26:d2:f2:a4:c0:72:46:79:f5:94:b0:5c:7a:92:a6:a6:5a:
        f6:43:9b:1d:21:cb:47:eb:4e:f6:5f:0d:7d:64:f0:88:d1:fa:
        36:a0:ee:ae:9a:d4:29:e0:be:fc:63:6e:ac:12:fa:d1:f7:9c:
        10:15:64:02:05:7d:d6:21:1d:23:30:38:74:6e:9c:0f:c9:9d:
        5f:ff:70:c1:67:6b:84:65:68:6d:f9:b6:f1:ef:60:18:4f:0e:
        5a:5d:75:64:5b:72:3c:78:9f:cc:d3:31:18:9c:a5:a5:b8:79:
        c2:a8:e9:f4:5e:fe:66:f3:78:40:91:6d:20:ae:a2:a7:80:19:
        6d:e7
-----BEGIN CERTIFICATE-----
MIIC1TCCAj6gAwIBAgIBATANBgkqhkiG9w0BAQUFADB5MQswCQYDVQQGEwJFUzEP
MA0GA1UECBMGTUFEUklEMQ8wDQYDVQQHEwZHRVRBRkUxITAfBgNVBAoTGEludGVy
bmV0IFdpZGdpdHMgUHR5IEx0ZDETMBEGA1UECxMKVUMzTSBDeWJlcjEQMA4GA1UE
AxMHVUMzTSBDQTAeFw0yMzExMTMxOTM4NThaFw0yNDExMTIxOTM4NThaMGsxCzAJ
BgNVBAYTAkVTMQ8wDQYDVQQIEwZNQURSSUQxITAfBgNVBAoTGEludGVybmV0IFdp
ZGdpdHMgUHR5IEx0ZDETMBEGA1UECxMKVUMzTSBDeWJlcjETMBEGA1UEAxMKMTAu
MC4zLjE0OTCBnzANBgkqhkiG9w0BAQEFAAOBjQAwgYkCgYEA05PGe6l8NIMyJKha
0pSF1dLxY4NNrgLTkdnfooWWMq6vNUFbWLDBbxxWYNGu9A7wRhenAa88EHqN/6Ew
qVmuK9r/pNrBuR3+gh/BGBavo0/VBLcv3u78N6Ma0p1H8v24yObPFer9Wx0LL+nZ
ZdHFYvTnfGN4xrQKGtaWe1kAB6cCAwEAAaN7MHkwCQYDVR0TBAIwADAsBglghkgB
hvhCAQ0EHxYdT3BlblNTTCBHZW5lcmF0ZWQgQ2VydGlmaWNhdGUwHQYDVR0OBBYE
FG2H7VzrA/VJAnfMPAN8I3ki9N3wMB8GA1UdIwQYMBaAFGiQlVJBJMKy1SkaNPUo
eBIlzgobMA0GCSqGSIb3DQEBBQUAA4GBAC4m0vKkwHJGefWUsFx6kqamWvZDmx0h
y0frTvZfDX1k8IjR+jag7q6a1CngvvxjbqwS+tH3nBAVZAIFfdYhHSMwOHRunA/J
nV//cMFna4RlaG35tvHvYBhPDlpddWRbcjx4n8zTMRicpaW4ecKo6fRe/mbzeECR
bSCuoqeAGW3n
-----END CERTIFICATE-----
