Certificate:
    Data:
        Version: 3 (0x2)
        Serial Number: 1 (0x1)
        Signature Algorithm: sha1WithRSAEncryption
        Issuer: C=ES, ST=MADRID, L=GETAFE, O=UC3M, OU=UC3M Cyber, CN=AsyncRAT
        Validity
            Not Before: Nov 13 19:46:25 2023 GMT
            Not After : Nov 12 19:46:25 2024 GMT
        Subject: C=ES, ST=MADRID, O=UC3M, OU=UC3M Cyber, CN=10.0.3.149
        Subject Public Key Info:
            Public Key Algorithm: rsaEncryption
            RSA Public Key: (1024 bit)
                Modulus (1024 bit):
                    00:99:6b:56:3b:3c:e2:09:42:70:e5:6f:bf:af:22:
                    c0:b7:07:99:af:b8:26:de:01:0a:23:ab:b3:c6:1c:
                    26:3e:46:53:4c:5c:f5:81:d4:d2:ff:c3:7b:35:5d:
                    68:86:53:68:44:6f:37:48:bb:08:72:27:a8:91:a8:
                    fe:de:f3:2c:b3:c1:d7:3d:1a:d2:1d:21:54:b7:38:
                    82:f3:91:30:d5:c0:1a:5e:fe:60:03:b9:83:89:d9:
                    89:35:a3:13:57:cb:e3:3c:21:6d:30:b8:55:3f:89:
                    aa:9a:ea:ce:75:cd:21:af:cb:b9:ab:93:8e:b8:d0:
                    48:03:6e:dc:4a:10:5c:1d:d7
                Exponent: 65537 (0x10001)
        X509v3 extensions:
            X509v3 Basic Constraints: 
                CA:FALSE
            Netscape Comment: 
                OpenSSL Generated Certificate
            X509v3 Subject Key Identifier: 
                65:95:63:63:41:E4:A7:5E:4B:89:55:B0:3A:F3:DD:14:B6:E1:2C:3B
            X509v3 Authority Key Identifier: 
                keyid:4A:65:D9:74:FA:86:E4:63:97:43:8C:43:F7:EB:DC:6A:80:A8:49:10

    Signature Algorithm: sha1WithRSAEncryption
        8f:15:62:42:44:2f:00:e5:76:b3:dd:6b:6d:41:e4:68:d2:5a:
        45:83:34:f5:ad:75:a2:0b:97:0a:08:94:ac:1c:4b:20:35:2c:
        b6:9c:a0:a3:c2:7b:8b:29:ab:94:48:4d:41:cd:a2:d7:b8:8d:
        b5:f6:29:69:ca:3f:8e:89:6c:8a:b0:3e:76:6f:ae:b2:9e:7b:
        f3:6b:eb:76:72:63:e3:3a:7c:56:c4:71:0e:92:b1:85:98:05:
        3b:03:dd:40:be:18:5a:7d:24:d9:41:1c:56:d9:d2:c8:a7:48:
        9c:ec:12:1b:f6:49:a5:f0:8d:44:75:b3:4f:a6:ff:02:b8:2d:
        bc:14
-----BEGIN CERTIFICATE-----
MIICrjCCAhegAwIBAgIBATANBgkqhkiG9w0BAQUFADBmMQswCQYDVQQGEwJFUzEP
MA0GA1UECBMGTUFEUklEMQ8wDQYDVQQHEwZHRVRBRkUxDTALBgNVBAoTBFVDM00x
EzARBgNVBAsTClVDM00gQ3liZXIxETAPBgNVBAMTCEFzeW5jUkFUMB4XDTIzMTEx
MzE5NDYyNVoXDTI0MTExMjE5NDYyNVowVzELMAkGA1UEBhMCRVMxDzANBgNVBAgT
Bk1BRFJJRDENMAsGA1UEChMEVUMzTTETMBEGA1UECxMKVUMzTSBDeWJlcjETMBEG
A1UEAxMKMTAuMC4zLjE0OTCBnzANBgkqhkiG9w0BAQEFAAOBjQAwgYkCgYEAmWtW
OzziCUJw5W+/ryLAtweZr7gm3gEKI6uzxhwmPkZTTFz1gdTS/8N7NV1ohlNoRG83
SLsIcieokaj+3vMss8HXPRrSHSFUtziC85Ew1cAaXv5gA7mDidmJNaMTV8vjPCFt
MLhVP4mqmurOdc0hr8u5q5OOuNBIA27cShBcHdcCAwEAAaN7MHkwCQYDVR0TBAIw
ADAsBglghkgBhvhCAQ0EHxYdT3BlblNTTCBHZW5lcmF0ZWQgQ2VydGlmaWNhdGUw
HQYDVR0OBBYEFGWVY2NB5KdeS4lVsDrz3RS24Sw7MB8GA1UdIwQYMBaAFEpl2XT6
huRjl0OMQ/fr3GqAqEkQMA0GCSqGSIb3DQEBBQUAA4GBAI8VYkJELwDldrPda21B
5GjSWkWDNPWtdaILlwoIlKwcSyA1LLacoKPCe4spq5RITUHNote4jbX2KWnKP46J
bIqwPnZvrrKee/Nr63ZyY+M6fFbEcQ6SsYWYBTsD3UC+GFp9JNlBHFbZ0sinSJzs
Ehv2SaXwjUR1s0+m/wK4LbwU
-----END CERTIFICATE-----
